target datalayout = "e-m:e-p270:32:32-p271:32:32-p272:64:64-i64:64-i128:128-f80:128-n8:16:32:64-S128"
target triple = "x86_64-pc-linux-gnu"

%struct.Str_Mux_t_ = type { i32, i32, i32, i32, [3 x %struct.Str_Edg_t_] }
%struct.Str_Edg_t_ = type { i32, i32, i32, i32 }

@.str.6 = private unnamed_addr constant [3 x i8] c"%d\00", align 1
@.str.11 = private unnamed_addr constant [5 x i8] c"{%d}\00", align 1
@.str.12 = private unnamed_addr constant [3 x i8] c"[ \00", align 1
@.str.13 = private unnamed_addr constant [2 x i8] c"!\00", align 1
@.str.14 = private unnamed_addr constant [2 x i8] c"|\00", align 1
@.str.15 = private unnamed_addr constant [2 x i8] c"(\00", align 1
@.str.16 = private unnamed_addr constant [2 x i8] c")\00", align 1
@.str.17 = private unnamed_addr constant [3 x i8] c" ]\00", align 1

; Function Attrs: inlinehint nounwind uwtable
define internal ptr @Str_MuxFanin(ptr noundef %0, i32 noundef %1) #3 {
  %3 = alloca ptr, align 8
  %4 = alloca i32, align 4
  store ptr %0, ptr %3, align 8, !tbaa !153
  store i32 %1, ptr %4, align 4, !tbaa !39
  %5 = load ptr, ptr %3, align 8, !tbaa !153
  %6 = load ptr, ptr %3, align 8, !tbaa !153
  %7 = getelementptr inbounds nuw %struct.Str_Mux_t_, ptr %6, i32 0, i32 0
  %8 = load i32, ptr %7, align 4, !tbaa !159
  %9 = sext i32 %8 to i64
  %10 = sub i64 0, %9
  %11 = getelementptr inbounds %struct.Str_Mux_t_, ptr %5, i64 %10
  %12 = load ptr, ptr %3, align 8, !tbaa !153
  %13 = getelementptr inbounds nuw %struct.Str_Mux_t_, ptr %12, i32 0, i32 4
  %14 = load i32, ptr %4, align 4, !tbaa !39
  %15 = sext i32 %14 to i64
  %16 = getelementptr inbounds [3 x %struct.Str_Edg_t_], ptr %13, i64 0, i64 %15
  %17 = getelementptr inbounds nuw %struct.Str_Edg_t_, ptr %16, i32 0, i32 0
  %18 = load i32, ptr %17, align 4, !tbaa !155
  %19 = sext i32 %18 to i64
  %20 = getelementptr inbounds %struct.Str_Mux_t_, ptr %11, i64 %19
  ret ptr %20
}

; Function Attrs: nounwind uwtable
define void @Str_MuxDelayPrint_rec(ptr noundef %0, i32 noundef %1) #0 {
  %3 = alloca ptr, align 8
  %4 = alloca i32, align 4
  %5 = alloca i32, align 4
  %6 = alloca ptr, align 8
  %7 = alloca i32, align 4
  store ptr %0, ptr %3, align 8, !tbaa !153
  store i32 %1, ptr %4, align 4, !tbaa !39
  call void @llvm.lifetime.start.p0(i64 4, ptr %5) #13
  store i32 1, ptr %5, align 4, !tbaa !39
  call void @llvm.lifetime.start.p0(i64 8, ptr %6) #13
  %8 = load ptr, ptr %3, align 8, !tbaa !153
  %9 = getelementptr inbounds nuw %struct.Str_Mux_t_, ptr %8, i32 0, i32 4
  %10 = load i32, ptr %4, align 4, !tbaa !39
  %11 = sext i32 %10 to i64
  %12 = getelementptr inbounds [3 x %struct.Str_Edg_t_], ptr %9, i64 0, i64 %11
  %13 = getelementptr inbounds nuw %struct.Str_Edg_t_, ptr %12, i32 0, i32 0
  %14 = load i32, ptr %13, align 4, !tbaa !155
  %15 = icmp sle i32 %14, 0
  br i1 %15, label %16, label %38

16:                                               ; preds = %2
  %17 = load ptr, ptr %3, align 8, !tbaa !153
  %18 = getelementptr inbounds nuw %struct.Str_Mux_t_, ptr %17, i32 0, i32 4
  %19 = load i32, ptr %4, align 4, !tbaa !39
  %20 = sext i32 %19 to i64
  %21 = getelementptr inbounds [3 x %struct.Str_Edg_t_], ptr %18, i64 0, i64 %20
  %22 = getelementptr inbounds nuw %struct.Str_Edg_t_, ptr %21, i32 0, i32 0
  %23 = load i32, ptr %22, align 4, !tbaa !155
  %24 = sub nsw i32 0, %23
  %25 = call i32 (ptr, ...) @printf(ptr noundef @.str.6, i32 noundef %24)
  %26 = load i32, ptr %5, align 4, !tbaa !39
  %27 = icmp ne i32 %26, 0
  br i1 %27, label %28, label %37

28:                                               ; preds = %16
  %29 = load ptr, ptr %3, align 8, !tbaa !153
  %30 = getelementptr inbounds nuw %struct.Str_Mux_t_, ptr %29, i32 0, i32 4
  %31 = load i32, ptr %4, align 4, !tbaa !39
  %32 = sext i32 %31 to i64
  %33 = getelementptr inbounds [3 x %struct.Str_Edg_t_], ptr %30, i64 0, i64 %32
  %34 = getelementptr inbounds nuw %struct.Str_Edg_t_, ptr %33, i32 0, i32 2
  %35 = load i32, ptr %34, align 4, !tbaa !157
  %36 = call i32 (ptr, ...) @printf(ptr noundef @.str.11, i32 noundef %35)
  br label %37

37:                                               ; preds = %28, %16
  store i32 1, ptr %7, align 4
  br label %77

38:                                               ; preds = %2
  %39 = load ptr, ptr %3, align 8, !tbaa !153
  %40 = load i32, ptr %4, align 4, !tbaa !39
  %41 = call ptr @Str_MuxFanin(ptr noundef %39, i32 noundef %40)
  store ptr %41, ptr %6, align 8, !tbaa !153
  %42 = call i32 (ptr, ...) @printf(ptr noundef @.str.12)
  %43 = load ptr, ptr %6, align 8, !tbaa !153
  %44 = getelementptr inbounds nuw %struct.Str_Mux_t_, ptr %43, i32 0, i32 4
  %45 = getelementptr inbounds [3 x %struct.Str_Edg_t_], ptr %44, i64 0, i64 0
  %46 = getelementptr inbounds nuw %struct.Str_Edg_t_, ptr %45, i32 0, i32 1
  %47 = load i32, ptr %46, align 4, !tbaa !158
  %48 = icmp ne i32 %47, 0
  br i1 %48, label %49, label %51

49:                                               ; preds = %38
  %50 = call i32 (ptr, ...) @printf(ptr noundef @.str.13)
  br label %51

51:                                               ; preds = %49, %38
  %52 = load ptr, ptr %6, align 8, !tbaa !153
  call void @Str_MuxDelayPrint_rec(ptr noundef %52, i32 noundef 0)
  %53 = call i32 (ptr, ...) @printf(ptr noundef @.str.14)
  %54 = load ptr, ptr %6, align 8, !tbaa !153
  %55 = getelementptr inbounds nuw %struct.Str_Mux_t_, ptr %54, i32 0, i32 4
  %56 = getelementptr inbounds [3 x %struct.Str_Edg_t_], ptr %55, i64 0, i64 1
  %57 = getelementptr inbounds nuw %struct.Str_Edg_t_, ptr %56, i32 0, i32 1
  %58 = load i32, ptr %57, align 4, !tbaa !158
  %59 = icmp ne i32 %58, 0
  br i1 %59, label %60, label %62

60:                                               ; preds = %51
  %61 = call i32 (ptr, ...) @printf(ptr noundef @.str.13)
  br label %62

62:                                               ; preds = %60, %51
  %63 = load ptr, ptr %6, align 8, !tbaa !153
  call void @Str_MuxDelayPrint_rec(ptr noundef %63, i32 noundef 1)
  %64 = call i32 (ptr, ...) @printf(ptr noundef @.str.15)
  %65 = load ptr, ptr %6, align 8, !tbaa !153
  %66 = getelementptr inbounds nuw %struct.Str_Mux_t_, ptr %65, i32 0, i32 4
  %67 = getelementptr inbounds [3 x %struct.Str_Edg_t_], ptr %66, i64 0, i64 2
  %68 = getelementptr inbounds nuw %struct.Str_Edg_t_, ptr %67, i32 0, i32 1
  %69 = load i32, ptr %68, align 4, !tbaa !158
  %70 = icmp ne i32 %69, 0
  br i1 %70, label %71, label %73

71:                                               ; preds = %62
  %72 = call i32 (ptr, ...) @printf(ptr noundef @.str.13)
  br label %73

73:                                               ; preds = %71, %62
  %74 = load ptr, ptr %6, align 8, !tbaa !153
  call void @Str_MuxDelayPrint_rec(ptr noundef %74, i32 noundef 2)
  %75 = call i32 (ptr, ...) @printf(ptr noundef @.str.16)
  %76 = call i32 (ptr, ...) @printf(ptr noundef @.str.17)
  store i32 0, ptr %7, align 4
  br label %77

77:                                               ; preds = %73, %37
  call void @llvm.lifetime.end.p0(i64 8, ptr %6) #13
  call void @llvm.lifetime.end.p0(i64 4, ptr %5) #13
  %78 = load i32, ptr %7, align 4
  switch i32 %78, label %80 [
    i32 0, label %79
    i32 1, label %79
  ]

79:                                               ; preds = %77, %77
  ret void

80:                                               ; preds = %77
  unreachable
}