; Function Attrs: nofree nounwind uwtable
define void @Str_MuxDelayPrint_rec(ptr noundef %0, i32 noundef %1) local_unnamed_addr #8 {
  %3 = getelementptr inbounds nuw i8, ptr %0, i64 16
  %4 = sext i32 %1 to i64
  %5 = getelementptr inbounds [3 x %struct.Str_Edg_t_], ptr %3, i64 0, i64 %4
  %6 = load i32, ptr %5, align 4, !tbaa !136
  %7 = icmp slt i32 %6, 1
  br i1 %7, label %common.ret, label %13

common.ret:                                       ; preds = %2
  %8 = sub nsw i32 0, %6
  %9 = tail call i32 (ptr, ...) @printf(ptr noundef nonnull dereferenceable(1) @.str.6, i32 noundef %8)
  %10 = getelementptr inbounds nuw i8, ptr %5, i64 8
  %11 = load i32, ptr %10, align 4, !tbaa !138
  %12 = tail call i32 (ptr, ...) @printf(ptr noundef nonnull dereferenceable(1) @.str.11, i32 noundef %11)
  br label %common.ret21

13:                                               ; preds = %2
  %14 = load i32, ptr %0, align 4, !tbaa !139
  %15 = sext i32 %14 to i64
  %16 = sub nsw i64 0, %15
  %17 = getelementptr inbounds %struct.Str_Mux_t_, ptr %0, i64 %16
  %18 = zext nneg i32 %6 to i64
  %19 = getelementptr inbounds nuw %struct.Str_Mux_t_, ptr %17, i64 %18
  %20 = tail call i32 (ptr, ...) @printf(ptr noundef nonnull dereferenceable(1) @.str.12)
  %21 = getelementptr inbounds nuw i8, ptr %19, i64 20
  %22 = load i32, ptr %21, align 4, !tbaa !141
  %.not = icmp eq i32 %22, 0
  br i1 %.not, label %24, label %23

23:                                               ; preds = %13
  %putchar = tail call i32 @putchar(i32 33)
  br label %24

24:                                               ; preds = %23, %13
  tail call void @Str_MuxDelayPrint_rec(ptr noundef nonnull %19, i32 noundef 0)
  %putchar14 = tail call i32 @putchar(i32 124)
  %25 = getelementptr inbounds nuw i8, ptr %19, i64 36
  %26 = load i32, ptr %25, align 4, !tbaa !141
  %.not15 = icmp eq i32 %26, 0
  br i1 %.not15, label %28, label %27

27:                                               ; preds = %24
  %putchar16 = tail call i32 @putchar(i32 33)
  br label %28

28:                                               ; preds = %27, %24
  tail call void @Str_MuxDelayPrint_rec(ptr noundef nonnull %19, i32 noundef 1)
  %putchar17 = tail call i32 @putchar(i32 40)
  %29 = getelementptr inbounds nuw i8, ptr %19, i64 52
  %30 = load i32, ptr %29, align 4, !tbaa !141
  %.not18 = icmp eq i32 %30, 0
  br i1 %.not18, label %32, label %31

31:                                               ; preds = %28
  %putchar19 = tail call i32 @putchar(i32 33)
  br label %32

common.ret21:                                     ; preds = %32, %common.ret
  ret void

32:                                               ; preds = %31, %28
  tail call void @Str_MuxDelayPrint_rec(ptr noundef nonnull %19, i32 noundef 2)
  %putchar20 = tail call i32 @putchar(i32 41)
  %33 = tail call i32 (ptr, ...) @printf(ptr noundef nonnull dereferenceable(1) @.str.17)
  br label %common.ret21
}